; ModuleID = '43/1613.c'
source_filename = "43/1613.c"
target datalayout = "e-m:e-p270:32:32-p271:32:32-p272:64:64-i64:64-f80:128-n8:16:32:64-S128"
target triple = "x86_64-pc-linux-gnu"

@.str = private unnamed_addr constant [3 x i8] c"%d\00", align 1
@.str.1 = private unnamed_addr constant [7 x i8] c"%d %d\0A\00", align 1

; Function Attrs: noinline nounwind uwtable
define dso_local i32 @main() #0 {
  %1 = alloca i32, align 4
  %2 = alloca i32, align 4
  %3 = alloca i32, align 4
  %4 = alloca i32, align 4
  %5 = alloca i32, align 4
  %6 = alloca i32, align 4
  store i32 0, i32* %1, align 4
  %7 = call i32 (i8*, ...) @__isoc99_scanf(i8* getelementptr inbounds ([3 x i8], [3 x i8]* @.str, i64 0, i64 0), i32* %2)
  store i32 3, i32* %3, align 4
  br label %8

8:                                                ; preds = %74, %0
  %9 = load i32, i32* %3, align 4
  %10 = load i32, i32* %2, align 4
  %11 = sdiv i32 %10, 2
  %12 = icmp sle i32 %9, %11
  br i1 %12, label %13, label %77

13:                                               ; preds = %8
  store i32 1, i32* %5, align 4
  store i32 2, i32* %4, align 4
  br label %14

14:                                               ; preds = %30, %13
  %15 = load i32, i32* %4, align 4
  %16 = load i32, i32* %3, align 4
  %17 = icmp slt i32 %15, %16
  br i1 %17, label %18, label %33

18:                                               ; preds = %14
  %19 = load i32, i32* %3, align 4
  %20 = load i32, i32* %4, align 4
  %21 = srem i32 %19, %20
  %22 = icmp ne i32 %21, 0
  br i1 %22, label %23, label %26

23:                                               ; preds = %18
  %24 = load i32, i32* %5, align 4
  %25 = mul nsw i32 %24, 1
  store i32 %25, i32* %5, align 4
  br label %29

26:                                               ; preds = %18
  %27 = load i32, i32* %5, align 4
  %28 = mul nsw i32 %27, 0
  store i32 %28, i32* %5, align 4
  br label %29

29:                                               ; preds = %26, %23
  br label %30

30:                                               ; preds = %29
  %31 = load i32, i32* %4, align 4
  %32 = add nsw i32 %31, 1
  store i32 %32, i32* %4, align 4
  br label %14

33:                                               ; preds = %14
  %34 = load i32, i32* %5, align 4
  %35 = icmp eq i32 %34, 1
  br i1 %35, label %36, label %73

36:                                               ; preds = %33
  %37 = load i32, i32* %2, align 4
  %38 = load i32, i32* %3, align 4
  %39 = sub nsw i32 %37, %38
  store i32 %39, i32* %6, align 4
  store i32 1, i32* %5, align 4
  store i32 2, i32* %4, align 4
  br label %40

40:                                               ; preds = %60, %36
  %41 = load i32, i32* %4, align 4
  %42 = load i32, i32* %2, align 4
  %43 = load i32, i32* %3, align 4
  %44 = sub nsw i32 %42, %43
  %45 = icmp slt i32 %41, %44
  br i1 %45, label %46, label %63

46:                                               ; preds = %40
  %47 = load i32, i32* %2, align 4
  %48 = load i32, i32* %3, align 4
  %49 = sub nsw i32 %47, %48
  %50 = load i32, i32* %4, align 4
  %51 = srem i32 %49, %50
  %52 = icmp ne i32 %51, 0
  br i1 %52, label %53, label %56

53:                                               ; preds = %46
  %54 = load i32, i32* %5, align 4
  %55 = mul nsw i32 %54, 1
  store i32 %55, i32* %5, align 4
  br label %59

56:                                               ; preds = %46
  %57 = load i32, i32* %5, align 4
  %58 = mul nsw i32 %57, 0
  store i32 %58, i32* %5, align 4
  br label %59

59:                                               ; preds = %56, %53
  br label %60

60:                                               ; preds = %59
  %61 = load i32, i32* %4, align 4
  %62 = add nsw i32 %61, 1
  store i32 %62, i32* %4, align 4
  br label %40

63:                                               ; preds = %40
  %64 = load i32, i32* %5, align 4
  %65 = icmp eq i32 %64, 1
  br i1 %65, label %66, label %72

66:                                               ; preds = %63
  %67 = load i32, i32* %3, align 4
  %68 = load i32, i32* %2, align 4
  %69 = load i32, i32* %3, align 4
  %70 = sub nsw i32 %68, %69
  %71 = call i32 (i8*, ...) @printf(i8* getelementptr inbounds ([7 x i8], [7 x i8]* @.str.1, i64 0, i64 0), i32 %67, i32 %70)
  br label %72

72:                                               ; preds = %66, %63
  br label %73

73:                                               ; preds = %72, %33
  br label %74

74:                                               ; preds = %73
  %75 = load i32, i32* %3, align 4
  %76 = add nsw i32 %75, 1
  store i32 %76, i32* %3, align 4
  br label %8

77:                                               ; preds = %8
  ret i32 0
}

declare dso_local i32 @__isoc99_scanf(i8*, ...) #1

declare dso_local i32 @printf(i8*, ...) #1


!llvm.module.flags = !{!0}
!llvm.ident = !{!1}

!0 = !{i32 1, !"wchar_size", i32 4}
!1 = !{!"clang version 10.0.0-4ubuntu1 "}
